target datalayout = "e-m:e-p270:32:32-p271:32:32-p272:64:64-i64:64-i128:128-f80:128-n8:16:32:64-S128"
target triple = "x86_64-pc-linux-gnu"

%struct.mi_heap_s = type { ptr, [129 x ptr], [75 x %struct.mi_page_queue_s], ptr, i64, i64, [2 x i64], %struct.mi_random_cxt_s, i64, i64, i64, ptr, i8 }
%struct.mi_page_queue_s = type { ptr, ptr, i64 }
%struct.mi_random_cxt_s = type { [16 x i32], [16 x i32], i32 }
%struct.mi_block_s = type { i64 }

; Function Attrs: inlinehint nounwind uwtable
define internal void @mi_block_set_nextx(ptr noundef %0, ptr noundef %1, ptr noundef %2, ptr noundef %3) #1 {
  %5 = alloca ptr, align 8
  %6 = alloca ptr, align 8
  %7 = alloca ptr, align 8
  %8 = alloca ptr, align 8
  store ptr %0, ptr %5, align 8, !tbaa !53
  store ptr %1, ptr %6, align 8, !tbaa !39
  store ptr %2, ptr %7, align 8, !tbaa !39
  store ptr %3, ptr %8, align 8, !tbaa !54
  %9 = load ptr, ptr %7, align 8, !tbaa !39
  %10 = ptrtoint ptr %9 to i64
  %11 = load ptr, ptr %6, align 8, !tbaa !39
  %12 = getelementptr inbounds nuw %struct.mi_block_s, ptr %11, i32 0, i32 0
  store i64 %10, ptr %12, align 8, !tbaa !56
  ret void
}

; Function Attrs: inlinehint nounwind uwtable
define internal ptr @mi_block_nextx(ptr noundef %0, ptr noundef %1, ptr noundef %2) #1 {
  %4 = alloca ptr, align 8
  %5 = alloca ptr, align 8
  %6 = alloca ptr, align 8
  store ptr %0, ptr %4, align 8, !tbaa !53
  store ptr %1, ptr %5, align 8, !tbaa !39
  store ptr %2, ptr %6, align 8, !tbaa !54
  %7 = load ptr, ptr %5, align 8, !tbaa !39
  %8 = getelementptr inbounds nuw %struct.mi_block_s, ptr %7, i32 0, i32 0
  %9 = load i64, ptr %8, align 8, !tbaa !56
  %10 = inttoptr i64 %9 to ptr
  ret ptr %10
}

; Function Attrs: nounwind uwtable
define hidden void @_mi_heap_delayed_free(ptr noundef %0) #0 {
  %2 = alloca ptr, align 8
  %3 = alloca ptr, align 8
  %4 = alloca ptr, align 8
  %5 = alloca ptr, align 8
  %6 = alloca i8, align 1
  %7 = alloca ptr, align 8
  %8 = alloca ptr, align 8
  %9 = alloca ptr, align 8
  %10 = alloca ptr, align 8
  %11 = alloca i8, align 1
  store ptr %0, ptr %2, align 8, !tbaa !12
  call void @llvm.lifetime.start.p0(i64 8, ptr %3) #6
  %12 = load ptr, ptr %2, align 8, !tbaa !12
  %13 = getelementptr inbounds nuw %struct.mi_heap_s, ptr %12, i32 0, i32 3
  %14 = load atomic i64, ptr %13 monotonic, align 8
  store i64 %14, ptr %4, align 8
  %15 = load ptr, ptr %4, align 8, !tbaa !39
  store ptr %15, ptr %3, align 8, !tbaa !39
  br label %16

16:                                               ; preds = %35, %1
  %17 = load ptr, ptr %3, align 8, !tbaa !39
  %18 = icmp ne ptr %17, null
  br i1 %18, label %19, label %33

19:                                               ; preds = %16
  %20 = load ptr, ptr %2, align 8, !tbaa !12
  %21 = getelementptr inbounds nuw %struct.mi_heap_s, ptr %20, i32 0, i32 3
  store ptr null, ptr %5, align 8, !tbaa !39
  %22 = load i64, ptr %3, align 8
  %23 = load i64, ptr %5, align 8
  %24 = cmpxchg weak ptr %21, i64 %22, i64 %23 acq_rel acquire, align 8
  %25 = extractvalue { i64, i1 } %24, 0
  %26 = extractvalue { i64, i1 } %24, 1
  br i1 %26, label %28, label %27

27:                                               ; preds = %19
  store i64 %25, ptr %3, align 8
  br label %28

28:                                               ; preds = %27, %19
  %29 = zext i1 %26 to i8
  store i8 %29, ptr %6, align 1, !tbaa !28
  %30 = load i8, ptr %6, align 1, !tbaa !28, !range !30, !noundef !31
  %31 = trunc i8 %30 to i1
  %32 = xor i1 %31, true
  br label %33

33:                                               ; preds = %28, %16
  %34 = phi i1 [ false, %16 ], [ %32, %28 ]
  br i1 %34, label %35, label %36

35:                                               ; preds = %33
  br label %16, !llvm.loop !50

36:                                               ; preds = %33
  br label %37

37:                                               ; preds = %77, %36
  %38 = load ptr, ptr %3, align 8, !tbaa !39
  %39 = icmp ne ptr %38, null
  br i1 %39, label %40, label %79

40:                                               ; preds = %37
  call void @llvm.lifetime.start.p0(i64 8, ptr %7) #6
  %41 = load ptr, ptr %2, align 8, !tbaa !12
  %42 = load ptr, ptr %3, align 8, !tbaa !39
  %43 = load ptr, ptr %2, align 8, !tbaa !12
  %44 = getelementptr inbounds nuw %struct.mi_heap_s, ptr %43, i32 0, i32 6
  %45 = getelementptr inbounds [2 x i64], ptr %44, i64 0, i64 0
  %46 = call ptr @mi_block_nextx(ptr noundef %41, ptr noundef %42, ptr noundef %45)
  store ptr %46, ptr %7, align 8, !tbaa !39
  %47 = load ptr, ptr %3, align 8, !tbaa !39
  %48 = call zeroext i1 @_mi_free_delayed_block(ptr noundef %47)
  br i1 %48, label %77, label %49

49:                                               ; preds = %40
  call void @llvm.lifetime.start.p0(i64 8, ptr %8) #6
  %50 = load ptr, ptr %2, align 8, !tbaa !12
  %51 = getelementptr inbounds nuw %struct.mi_heap_s, ptr %50, i32 0, i32 3
  %52 = load atomic i64, ptr %51 monotonic, align 8
  store i64 %52, ptr %9, align 8
  %53 = load ptr, ptr %9, align 8, !tbaa !39
  store ptr %53, ptr %8, align 8, !tbaa !39
  br label %54

54:                                               ; preds = %71, %49
  %55 = load ptr, ptr %2, align 8, !tbaa !12
  %56 = load ptr, ptr %3, align 8, !tbaa !39
  %57 = load ptr, ptr %8, align 8, !tbaa !39
  %58 = load ptr, ptr %2, align 8, !tbaa !12
  %59 = getelementptr inbounds nuw %struct.mi_heap_s, ptr %58, i32 0, i32 6
  %60 = getelementptr inbounds [2 x i64], ptr %59, i64 0, i64 0
  call void @mi_block_set_nextx(ptr noundef %55, ptr noundef %56, ptr noundef %57, ptr noundef %60)
  br label %61

61:                                               ; preds = %54
  %62 = load ptr, ptr %2, align 8, !tbaa !12
  %63 = getelementptr inbounds nuw %struct.mi_heap_s, ptr %62, i32 0, i32 3
  %64 = load ptr, ptr %3, align 8, !tbaa !39
  store ptr %64, ptr %10, align 8, !tbaa !39
  %65 = load i64, ptr %8, align 8
  %66 = load i64, ptr %10, align 8
  %67 = cmpxchg weak ptr %63, i64 %65, i64 %66 release monotonic, align 8
  %68 = extractvalue { i64, i1 } %67, 0
  %69 = extractvalue { i64, i1 } %67, 1
  br i1 %69, label %71, label %70

70:                                               ; preds = %61
  store i64 %68, ptr %8, align 8
  br label %71

71:                                               ; preds = %70, %61
  %72 = zext i1 %69 to i8
  store i8 %72, ptr %11, align 1, !tbaa !28
  %73 = load i8, ptr %11, align 1, !tbaa !28, !range !30, !noundef !31
  %74 = trunc i8 %73 to i1
  %75 = xor i1 %74, true
  br i1 %75, label %54, label %76, !llvm.loop !51

76:                                               ; preds = %71
  call void @llvm.lifetime.end.p0(i64 8, ptr %8) #6
  br label %77

77:                                               ; preds = %76, %40
  %78 = load ptr, ptr %7, align 8, !tbaa !39
  store ptr %78, ptr %3, align 8, !tbaa !39
  call void @llvm.lifetime.end.p0(i64 8, ptr %7) #6
  br label %37, !llvm.loop !52

79:                                               ; preds = %37
  call void @llvm.lifetime.end.p0(i64 8, ptr %3) #6
  ret void
}