; Function Attrs: nounwind uwtable
define hidden void @_mi_heap_delayed_free(ptr noundef captures(none) %0) local_unnamed_addr #1 {
  %2 = getelementptr inbounds nuw i8, ptr %0, i64 2840
  %3 = load atomic i64, ptr %2 monotonic, align 8
  %.old1.not = icmp eq i64 %3, 0
  br i1 %.old1.not, label %._crit_edge, label %.preheader.preheader

.preheader.preheader:                             ; preds = %1
  %4 = inttoptr i64 %3 to ptr
  br label %.preheader

.preheader:                                       ; preds = %.preheader.preheader, %.preheader
  %.0 = phi ptr [ %.1, %.preheader ], [ %4, %.preheader.preheader ]
  %5 = ptrtoint ptr %.0 to i64
  %6 = cmpxchg weak ptr %2, i64 %5, i64 0 acq_rel acquire, align 8
  %7 = extractvalue { i64, i1 } %6, 1
  %8 = extractvalue { i64, i1 } %6, 0
  %9 = inttoptr i64 %8 to ptr
  %.1 = select i1 %7, ptr %.0, ptr %9
  %10 = icmp eq ptr %.1, null
  %or.cond.not = select i1 %7, i1 true, i1 %10
  br i1 %or.cond.not, label %.critedge, label %.preheader, !llvm.loop !44

.critedge:                                        ; preds = %.preheader
  %.not28 = icmp eq ptr %.1, null
  br i1 %.not28, label %._crit_edge, label %.lr.ph

.lr.ph:                                           ; preds = %.critedge, %.loopexit
  %.329 = phi ptr [ %11, %.loopexit ], [ %.1, %.critedge ]
  %.3.val = load i64, ptr %.329, align 8, !tbaa !28
  %11 = inttoptr i64 %.3.val to ptr
  %12 = tail call zeroext i1 @_mi_free_delayed_block(ptr noundef nonnull %.329) #8
  br i1 %12, label %.loopexit, label %13

13:                                               ; preds = %.lr.ph
  %14 = load atomic i64, ptr %2 monotonic, align 8
  %15 = ptrtoint ptr %.329 to i64
  br label %16

16:                                               ; preds = %16, %13
  %.024.in = phi i64 [ %14, %13 ], [ %19, %16 ]
  store i64 %.024.in, ptr %.329, align 8, !tbaa !28
  %17 = cmpxchg weak ptr %2, i64 %.024.in, i64 %15 release monotonic, align 8
  %18 = extractvalue { i64, i1 } %17, 1
  %19 = extractvalue { i64, i1 } %17, 0
  br i1 %18, label %.loopexit, label %16, !llvm.loop !45

.loopexit:                                        ; preds = %16, %.lr.ph
  %.not = icmp eq i64 %.3.val, 0
  br i1 %.not, label %._crit_edge, label %.lr.ph, !llvm.loop !46

._crit_edge:                                      ; preds = %.loopexit, %1, %.critedge
  ret void
}